target datalayout = "e-m:e-p270:32:32-p271:32:32-p272:64:64-i64:64-i128:128-f80:128-n8:16:32:64-S128"
target triple = "x86_64-pc-linux-gnu"

%union.pthread_mutex_t = type { %struct.__pthread_mutex_s }
%struct.__pthread_mutex_s = type { i32, i32, i32, i32, i32, i16, i16, %struct.__pthread_internal_list }
%struct.__pthread_internal_list = type { ptr, ptr }
%struct._priv_exr_part_t = type { i32, i32, %struct.exr_attribute_list, ptr, ptr, ptr, ptr, ptr, ptr, ptr, ptr, ptr, ptr, ptr, ptr, ptr, ptr, %struct.exr_attr_box2i_t, %struct.exr_attr_box2i_t, i32, i32, i32, float, i32, i32, ptr, ptr, ptr, ptr, i64, i16, i16, i32, i64, i64 }
%struct.exr_attribute_list = type { i32, i32, ptr, ptr }
%struct.exr_attr_box2i_t = type { %struct.exr_attr_v2i_t, %struct.exr_attr_v2i_t }
%struct.exr_attr_v2i_t = type { i32, i32 }
%struct._priv_exr_context_t = type { i8, i8, i8, i8, i8, i8, i8, i8, %struct.exr_attr_string_t, %struct.exr_attr_string_t, ptr, ptr, ptr, ptr, ptr, ptr, ptr, ptr, i32, i32, i32, i32, i32, float, ptr, ptr, ptr, i64, ptr, ptr, i64, i32, i32, i32, i32, %struct._priv_exr_part_t, ptr, ptr, %struct.exr_attribute_list, %union.pthread_mutex_t, i8, i8, [2 x i8], i32 }
%struct.exr_attr_string_t = type { i32, i32, ptr }
%struct.__va_list_tag = type { i32, i32, ptr, ptr }

@.str = private unnamed_addr constant [36 x i8] c"Unable to allocate temporary memory\00", align 1

; Function Attrs: nounwind uwtable
define internal i32 @dispatch_error(ptr noundef %0, i32 noundef %1, ptr noundef %2) #0 {
  %4 = alloca i32, align 4
  %5 = alloca ptr, align 8
  %6 = alloca i32, align 4
  %7 = alloca ptr, align 8
  store ptr %0, ptr %5, align 8, !tbaa !3
  store i32 %1, ptr %6, align 4, !tbaa !26
  store ptr %2, ptr %7, align 8, !tbaa !59
  %8 = load ptr, ptr %5, align 8, !tbaa !3
  %9 = icmp ne ptr %8, null
  br i1 %9, label %10, label %18

10:                                               ; preds = %3
  %11 = load ptr, ptr %5, align 8, !tbaa !3
  %12 = getelementptr inbounds nuw %struct._priv_exr_context_t, ptr %11, i32 0, i32 15
  %13 = load ptr, ptr %12, align 8, !tbaa !60
  %14 = load ptr, ptr %5, align 8, !tbaa !3
  %15 = load i32, ptr %6, align 4, !tbaa !26
  %16 = load ptr, ptr %7, align 8, !tbaa !59
  call void %13(ptr noundef %14, i32 noundef %15, ptr noundef %16)
  %17 = load i32, ptr %6, align 4, !tbaa !26
  store i32 %17, ptr %4, align 4
  br label %23

18:                                               ; preds = %3
  %19 = load ptr, ptr %5, align 8, !tbaa !3
  %20 = load i32, ptr %6, align 4, !tbaa !26
  %21 = load ptr, ptr %7, align 8, !tbaa !59
  call void @default_error_handler(ptr noundef %19, i32 noundef %20, ptr noundef %21)
  %22 = load i32, ptr %6, align 4, !tbaa !26
  store i32 %22, ptr %4, align 4
  br label %23

23:                                               ; preds = %18, %10
  %24 = load i32, ptr %4, align 4
  ret i32 %24
}

; Function Attrs: nounwind uwtable
define internal i32 @dispatch_print_error(ptr noundef %0, i32 noundef %1, ptr noundef %2, ...) #0 {
  %4 = alloca ptr, align 8
  %5 = alloca i32, align 4
  %6 = alloca ptr, align 8
  %7 = alloca [256 x i8], align 16
  %8 = alloca ptr, align 8
  %9 = alloca i32, align 4
  %10 = alloca [1 x %struct.__va_list_tag], align 16
  %11 = alloca [1 x %struct.__va_list_tag], align 16
  store ptr %0, ptr %4, align 8, !tbaa !3
  store i32 %1, ptr %5, align 4, !tbaa !26
  store ptr %2, ptr %6, align 8, !tbaa !59
  call void @llvm.lifetime.start.p0(i64 256, ptr %7) #7
  call void @llvm.lifetime.start.p0(i64 8, ptr %8) #7
  store ptr null, ptr %8, align 8, !tbaa !59
  call void @llvm.lifetime.start.p0(i64 4, ptr %9) #7
  store i32 0, ptr %9, align 4, !tbaa !26
  call void @llvm.lifetime.start.p0(i64 24, ptr %10) #7
  %12 = getelementptr inbounds [1 x %struct.__va_list_tag], ptr %10, i64 0, i64 0
  call void @llvm.va_start.p0(ptr %12)
  call void @llvm.lifetime.start.p0(i64 24, ptr %11) #7
  %13 = getelementptr inbounds [1 x %struct.__va_list_tag], ptr %11, i64 0, i64 0
  %14 = getelementptr inbounds [1 x %struct.__va_list_tag], ptr %10, i64 0, i64 0
  call void @llvm.va_copy.p0(ptr %13, ptr %14)
  %15 = getelementptr inbounds [256 x i8], ptr %7, i64 0, i64 0
  %16 = load ptr, ptr %6, align 8, !tbaa !59
  %17 = getelementptr inbounds [1 x %struct.__va_list_tag], ptr %11, i64 0, i64 0
  %18 = call i32 @vsnprintf(ptr noundef %15, i64 noundef 256, ptr noundef %16, ptr noundef %17) #7
  store i32 %18, ptr %9, align 4, !tbaa !26
  %19 = getelementptr inbounds [1 x %struct.__va_list_tag], ptr %11, i64 0, i64 0
  call void @llvm.va_end.p0(ptr %19)
  %20 = load i32, ptr %9, align 4, !tbaa !26
  %21 = icmp sge i32 %20, 256
  br i1 %21, label %22, label %53

22:                                               ; preds = %3
  %23 = load ptr, ptr %4, align 8, !tbaa !3
  %24 = getelementptr inbounds nuw %struct._priv_exr_context_t, ptr %23, i32 0, i32 16
  %25 = load ptr, ptr %24, align 8, !tbaa !29
  %26 = load i32, ptr %9, align 4, !tbaa !26
  %27 = add nsw i32 %26, 1
  %28 = sext i32 %27 to i64
  %29 = call ptr %25(i64 noundef %28)
  store ptr %29, ptr %8, align 8, !tbaa !59
  %30 = load ptr, ptr %8, align 8, !tbaa !59
  %31 = icmp ne ptr %30, null
  br i1 %31, label %32, label %48

32:                                               ; preds = %22
  %33 = load ptr, ptr %8, align 8, !tbaa !59
  %34 = load i32, ptr %9, align 4, !tbaa !26
  %35 = add nsw i32 %34, 1
  %36 = sext i32 %35 to i64
  %37 = load ptr, ptr %6, align 8, !tbaa !59
  %38 = getelementptr inbounds [1 x %struct.__va_list_tag], ptr %10, i64 0, i64 0
  %39 = call i32 @vsnprintf(ptr noundef %33, i64 noundef %36, ptr noundef %37, ptr noundef %38) #7
  %40 = load ptr, ptr %4, align 8, !tbaa !3
  %41 = load i32, ptr %5, align 4, !tbaa !26
  %42 = load ptr, ptr %8, align 8, !tbaa !59
  %43 = call i32 @dispatch_error(ptr noundef %40, i32 noundef %41, ptr noundef %42)
  %44 = load ptr, ptr %4, align 8, !tbaa !3
  %45 = getelementptr inbounds nuw %struct._priv_exr_context_t, ptr %44, i32 0, i32 17
  %46 = load ptr, ptr %45, align 8, !tbaa !31
  %47 = load ptr, ptr %8, align 8, !tbaa !59
  call void %46(ptr noundef %47)
  br label %52

48:                                               ; preds = %22
  %49 = load ptr, ptr %4, align 8, !tbaa !3
  %50 = load i32, ptr %5, align 4, !tbaa !26
  %51 = call i32 @dispatch_error(ptr noundef %49, i32 noundef %50, ptr noundef @.str)
  br label %52

52:                                               ; preds = %48, %32
  br label %58

53:                                               ; preds = %3
  %54 = load ptr, ptr %4, align 8, !tbaa !3
  %55 = load i32, ptr %5, align 4, !tbaa !26
  %56 = getelementptr inbounds [256 x i8], ptr %7, i64 0, i64 0
  %57 = call i32 @dispatch_error(ptr noundef %54, i32 noundef %55, ptr noundef %56)
  br label %58

58:                                               ; preds = %53, %52
  call void @llvm.lifetime.end.p0(i64 24, ptr %11) #7
  %59 = getelementptr inbounds [1 x %struct.__va_list_tag], ptr %10, i64 0, i64 0
  call void @llvm.va_end.p0(ptr %59)
  %60 = load i32, ptr %5, align 4, !tbaa !26
  call void @llvm.lifetime.end.p0(i64 24, ptr %10) #7
  call void @llvm.lifetime.end.p0(i64 4, ptr %9) #7
  call void @llvm.lifetime.end.p0(i64 8, ptr %8) #7
  call void @llvm.lifetime.end.p0(i64 256, ptr %7) #7
  ret i32 %60
}