; Function Attrs: nounwind uwtable
define internal noundef i32 @dispatch_print_error(ptr noundef %0, i32 noundef returned %1, ptr noundef readonly captures(none) %2, ...) #0 {
  %4 = alloca [256 x i8], align 16
  %5 = alloca [1 x %struct.__va_list_tag], align 16
  %6 = alloca [1 x %struct.__va_list_tag], align 16
  call void @llvm.lifetime.start.p0(i64 256, ptr nonnull %4) #12
  call void @llvm.lifetime.start.p0(i64 24, ptr nonnull %5) #12
  call void @llvm.va_start.p0(ptr nonnull %5)
  call void @llvm.lifetime.start.p0(i64 24, ptr nonnull %6) #12
  call void @llvm.va_copy.p0(ptr nonnull %6, ptr nonnull %5)
  %7 = call i32 @vsnprintf(ptr noundef nonnull %4, i64 noundef 256, ptr noundef %2, ptr noundef nonnull %6) #12
  call void @llvm.va_end.p0(ptr nonnull %6)
  %8 = icmp sgt i32 %7, 255
  br i1 %8, label %9, label %22

9:                                                ; preds = %3
  %10 = getelementptr inbounds nuw i8, ptr %0, i64 88
  %11 = load ptr, ptr %10, align 8, !tbaa !24
  %12 = add nuw nsw i32 %7, 1
  %13 = zext nneg i32 %12 to i64
  %14 = call ptr %11(i64 noundef %13) #12
  %.not = icmp eq ptr %14, null
  br i1 %.not, label %dispatch_error.exit19, label %dispatch_error.exit

dispatch_error.exit:                              ; preds = %9
  %15 = call i32 @vsnprintf(ptr noundef nonnull %14, i64 noundef %13, ptr noundef %2, ptr noundef nonnull %5) #12
  %16 = getelementptr inbounds nuw i8, ptr %0, i64 80
  %17 = load ptr, ptr %16, align 8, !tbaa !54
  call void %17(ptr noundef nonnull %0, i32 noundef %1, ptr noundef nonnull %14) #12
  %18 = getelementptr inbounds nuw i8, ptr %0, i64 96
  %19 = load ptr, ptr %18, align 8, !tbaa !25
  call void %19(ptr noundef nonnull %14) #12
  br label %dispatch_error.exit21

dispatch_error.exit19:                            ; preds = %9
  %20 = getelementptr inbounds nuw i8, ptr %0, i64 80
  %21 = load ptr, ptr %20, align 8, !tbaa !54
  call void %21(ptr noundef nonnull %0, i32 noundef %1, ptr noundef nonnull @.str) #12
  br label %dispatch_error.exit21

22:                                               ; preds = %3
  %.not.i20 = icmp eq ptr %0, null
  br i1 %.not.i20, label %26, label %23

23:                                               ; preds = %22
  %24 = getelementptr inbounds nuw i8, ptr %0, i64 80
  %25 = load ptr, ptr %24, align 8, !tbaa !54
  call void %25(ptr noundef nonnull %0, i32 noundef %1, ptr noundef nonnull %4) #12
  br label %dispatch_error.exit21

26:                                               ; preds = %22
  call void @default_error_handler(ptr noundef null, i32 noundef %1, ptr noundef nonnull %4)
  br label %dispatch_error.exit21

dispatch_error.exit21:                            ; preds = %26, %23, %dispatch_error.exit, %dispatch_error.exit19
  call void @llvm.lifetime.end.p0(i64 24, ptr nonnull %6) #12
  call void @llvm.va_end.p0(ptr nonnull %5)
  call void @llvm.lifetime.end.p0(i64 24, ptr nonnull %5) #12
  call void @llvm.lifetime.end.p0(i64 256, ptr nonnull %4) #12
  ret i32 %1
}